target datalayout = "e-m:e-p270:32:32-p271:32:32-p272:64:64-i64:64-i128:128-f80:128-n8:16:32:64-S128"
target triple = "x86_64-pc-linux-gnu"

%struct.AVFilterContext = type { ptr, ptr, ptr, ptr, ptr, i32, ptr, ptr, i32, ptr, ptr, i32, i32, ptr, ptr, ptr, ptr, i32, ptr, i32, i32 }
%struct.LimiterContext = type { ptr, i32, i32, i32, i32, [4 x i32], [4 x i32], [4 x i32], %struct.LimiterDSPContext }
%struct.LimiterDSPContext = type { ptr }
%struct.AVFilterLink = type { ptr, ptr, ptr, ptr, i32, i32, i32, i32, %struct.AVRational, i32, i32, i32, %struct.AVChannelLayout, %struct.AVRational, ptr, i32, %struct.AVFilterFormatsConfig, %struct.AVFilterFormatsConfig }
%struct.AVChannelLayout = type { i32, i32, %union.anon.1, ptr }
%union.anon.1 = type { i64 }
%struct.AVRational = type { i32, i32 }
%struct.AVFilterFormatsConfig = type { ptr, ptr, ptr, ptr, ptr }
%struct.AVPixFmtDescriptor = type { ptr, i8, i8, i8, i64, [4 x %struct.AVComponentDescriptor], ptr }
%struct.AVComponentDescriptor = type { i32, i32, i32, i32, i32 }

; Function Attrs: nounwind uwtable
define internal i32 @config_input(ptr noundef %0) #1 {
  %2 = alloca i32, align 4
  %3 = alloca ptr, align 8
  %4 = alloca ptr, align 8
  %5 = alloca ptr, align 8
  %6 = alloca ptr, align 8
  %7 = alloca i32, align 4
  %8 = alloca i32, align 4
  %9 = alloca i32, align 4
  %10 = alloca i32, align 4
  %11 = alloca i32, align 4
  store ptr %0, ptr %3, align 8, !tbaa !31
  call void @llvm.lifetime.start.p0(i64 8, ptr %4) #7
  %12 = load ptr, ptr %3, align 8, !tbaa !31
  %13 = getelementptr inbounds nuw %struct.AVFilterLink, ptr %12, i32 0, i32 2
  %14 = load ptr, ptr %13, align 8, !tbaa !35
  store ptr %14, ptr %4, align 8, !tbaa !4
  call void @llvm.lifetime.start.p0(i64 8, ptr %5) #7
  %15 = load ptr, ptr %4, align 8, !tbaa !4
  %16 = getelementptr inbounds nuw %struct.AVFilterContext, ptr %15, i32 0, i32 9
  %17 = load ptr, ptr %16, align 8, !tbaa !9
  store ptr %17, ptr %5, align 8, !tbaa !22
  call void @llvm.lifetime.start.p0(i64 8, ptr %6) #7
  %18 = load ptr, ptr %3, align 8, !tbaa !31
  %19 = getelementptr inbounds nuw %struct.AVFilterLink, ptr %18, i32 0, i32 5
  %20 = load i32, ptr %19, align 4, !tbaa !49
  %21 = call ptr @av_pix_fmt_desc_get(i32 noundef %20)
  store ptr %21, ptr %6, align 8, !tbaa !50
  call void @llvm.lifetime.start.p0(i64 4, ptr %7) #7
  call void @llvm.lifetime.start.p0(i64 4, ptr %8) #7
  call void @llvm.lifetime.start.p0(i64 4, ptr %9) #7
  call void @llvm.lifetime.start.p0(i64 4, ptr %10) #7
  %22 = load ptr, ptr %3, align 8, !tbaa !31
  %23 = getelementptr inbounds nuw %struct.AVFilterLink, ptr %22, i32 0, i32 5
  %24 = load i32, ptr %23, align 4, !tbaa !49
  %25 = call i32 @av_pix_fmt_count_planes(i32 noundef %24)
  %26 = load ptr, ptr %5, align 8, !tbaa !22
  %27 = getelementptr inbounds nuw %struct.LimiterContext, ptr %26, i32 0, i32 4
  store i32 %25, ptr %27, align 4, !tbaa !52
  %28 = load ptr, ptr %5, align 8, !tbaa !22
  %29 = getelementptr inbounds nuw %struct.LimiterContext, ptr %28, i32 0, i32 5
  %30 = getelementptr inbounds [4 x i32], ptr %29, i64 0, i64 0
  %31 = load ptr, ptr %3, align 8, !tbaa !31
  %32 = getelementptr inbounds nuw %struct.AVFilterLink, ptr %31, i32 0, i32 5
  %33 = load i32, ptr %32, align 4, !tbaa !49
  %34 = load ptr, ptr %3, align 8, !tbaa !31
  %35 = getelementptr inbounds nuw %struct.AVFilterLink, ptr %34, i32 0, i32 6
  %36 = load i32, ptr %35, align 8, !tbaa !44
  %37 = call i32 @av_image_fill_linesizes(ptr noundef %30, i32 noundef %33, i32 noundef %36)
  store i32 %37, ptr %10, align 4, !tbaa !29
  %38 = icmp slt i32 %37, 0
  br i1 %38, label %39, label %41

39:                                               ; preds = %1
  %40 = load i32, ptr %10, align 4, !tbaa !29
  store i32 %40, ptr %2, align 4
  store i32 1, ptr %11, align 4
  br label %178

41:                                               ; preds = %1
  %42 = load ptr, ptr %6, align 8, !tbaa !50
  %43 = getelementptr inbounds nuw %struct.AVPixFmtDescriptor, ptr %42, i32 0, i32 5
  %44 = getelementptr inbounds [4 x %struct.AVComponentDescriptor], ptr %43, i64 0, i64 0
  %45 = getelementptr inbounds nuw %struct.AVComponentDescriptor, ptr %44, i32 0, i32 4
  %46 = load i32, ptr %45, align 8, !tbaa !53
  store i32 %46, ptr %7, align 4, !tbaa !29
  %47 = load ptr, ptr %6, align 8, !tbaa !50
  %48 = getelementptr inbounds nuw %struct.AVPixFmtDescriptor, ptr %47, i32 0, i32 2
  %49 = load i8, ptr %48, align 1, !tbaa !55
  %50 = zext i8 %49 to i32
  store i32 %50, ptr %9, align 4, !tbaa !29
  %51 = load ptr, ptr %6, align 8, !tbaa !50
  %52 = getelementptr inbounds nuw %struct.AVPixFmtDescriptor, ptr %51, i32 0, i32 3
  %53 = load i8, ptr %52, align 2, !tbaa !58
  %54 = zext i8 %53 to i32
  store i32 %54, ptr %8, align 4, !tbaa !29
  %55 = load i32, ptr %8, align 4, !tbaa !29
  %56 = call i1 @llvm.is.constant.i32(i32 %55)
  br i1 %56, label %65, label %57

57:                                               ; preds = %41
  %58 = load ptr, ptr %3, align 8, !tbaa !31
  %59 = getelementptr inbounds nuw %struct.AVFilterLink, ptr %58, i32 0, i32 7
  %60 = load i32, ptr %59, align 4, !tbaa !45
  %61 = sub nsw i32 0, %60
  %62 = load i32, ptr %8, align 4, !tbaa !29
  %63 = ashr i32 %61, %62
  %64 = sub nsw i32 0, %63
  br label %75

65:                                               ; preds = %41
  %66 = load ptr, ptr %3, align 8, !tbaa !31
  %67 = getelementptr inbounds nuw %struct.AVFilterLink, ptr %66, i32 0, i32 7
  %68 = load i32, ptr %67, align 4, !tbaa !45
  %69 = load i32, ptr %8, align 4, !tbaa !29
  %70 = shl i32 1, %69
  %71 = add nsw i32 %68, %70
  %72 = sub nsw i32 %71, 1
  %73 = load i32, ptr %8, align 4, !tbaa !29
  %74 = ashr i32 %72, %73
  br label %75

75:                                               ; preds = %65, %57
  %76 = phi i32 [ %64, %57 ], [ %74, %65 ]
  %77 = load ptr, ptr %5, align 8, !tbaa !22
  %78 = getelementptr inbounds nuw %struct.LimiterContext, ptr %77, i32 0, i32 7
  %79 = getelementptr inbounds [4 x i32], ptr %78, i64 0, i64 2
  store i32 %76, ptr %79, align 8, !tbaa !29
  %80 = load ptr, ptr %5, align 8, !tbaa !22
  %81 = getelementptr inbounds nuw %struct.LimiterContext, ptr %80, i32 0, i32 7
  %82 = getelementptr inbounds [4 x i32], ptr %81, i64 0, i64 1
  store i32 %76, ptr %82, align 4, !tbaa !29
  %83 = load ptr, ptr %3, align 8, !tbaa !31
  %84 = getelementptr inbounds nuw %struct.AVFilterLink, ptr %83, i32 0, i32 7
  %85 = load i32, ptr %84, align 4, !tbaa !45
  %86 = load ptr, ptr %5, align 8, !tbaa !22
  %87 = getelementptr inbounds nuw %struct.LimiterContext, ptr %86, i32 0, i32 7
  %88 = getelementptr inbounds [4 x i32], ptr %87, i64 0, i64 3
  store i32 %85, ptr %88, align 4, !tbaa !29
  %89 = load ptr, ptr %5, align 8, !tbaa !22
  %90 = getelementptr inbounds nuw %struct.LimiterContext, ptr %89, i32 0, i32 7
  %91 = getelementptr inbounds [4 x i32], ptr %90, i64 0, i64 0
  store i32 %85, ptr %91, align 8, !tbaa !29
  %92 = load i32, ptr %9, align 4, !tbaa !29
  %93 = call i1 @llvm.is.constant.i32(i32 %92)
  br i1 %93, label %102, label %94

94:                                               ; preds = %75
  %95 = load ptr, ptr %3, align 8, !tbaa !31
  %96 = getelementptr inbounds nuw %struct.AVFilterLink, ptr %95, i32 0, i32 6
  %97 = load i32, ptr %96, align 8, !tbaa !44
  %98 = sub nsw i32 0, %97
  %99 = load i32, ptr %9, align 4, !tbaa !29
  %100 = ashr i32 %98, %99
  %101 = sub nsw i32 0, %100
  br label %112

102:                                              ; preds = %75
  %103 = load ptr, ptr %3, align 8, !tbaa !31
  %104 = getelementptr inbounds nuw %struct.AVFilterLink, ptr %103, i32 0, i32 6
  %105 = load i32, ptr %104, align 8, !tbaa !44
  %106 = load i32, ptr %9, align 4, !tbaa !29
  %107 = shl i32 1, %106
  %108 = add nsw i32 %105, %107
  %109 = sub nsw i32 %108, 1
  %110 = load i32, ptr %9, align 4, !tbaa !29
  %111 = ashr i32 %109, %110
  br label %112

112:                                              ; preds = %102, %94
  %113 = phi i32 [ %101, %94 ], [ %111, %102 ]
  %114 = load ptr, ptr %5, align 8, !tbaa !22
  %115 = getelementptr inbounds nuw %struct.LimiterContext, ptr %114, i32 0, i32 6
  %116 = getelementptr inbounds [4 x i32], ptr %115, i64 0, i64 2
  store i32 %113, ptr %116, align 8, !tbaa !29
  %117 = load ptr, ptr %5, align 8, !tbaa !22
  %118 = getelementptr inbounds nuw %struct.LimiterContext, ptr %117, i32 0, i32 6
  %119 = getelementptr inbounds [4 x i32], ptr %118, i64 0, i64 1
  store i32 %113, ptr %119, align 4, !tbaa !29
  %120 = load ptr, ptr %3, align 8, !tbaa !31
  %121 = getelementptr inbounds nuw %struct.AVFilterLink, ptr %120, i32 0, i32 6
  %122 = load i32, ptr %121, align 8, !tbaa !44
  %123 = load ptr, ptr %5, align 8, !tbaa !22
  %124 = getelementptr inbounds nuw %struct.LimiterContext, ptr %123, i32 0, i32 6
  %125 = getelementptr inbounds [4 x i32], ptr %124, i64 0, i64 3
  store i32 %122, ptr %125, align 4, !tbaa !29
  %126 = load ptr, ptr %5, align 8, !tbaa !22
  %127 = getelementptr inbounds nuw %struct.LimiterContext, ptr %126, i32 0, i32 6
  %128 = getelementptr inbounds [4 x i32], ptr %127, i64 0, i64 0
  store i32 %122, ptr %128, align 8, !tbaa !29
  %129 = load ptr, ptr %5, align 8, !tbaa !22
  %130 = getelementptr inbounds nuw %struct.LimiterContext, ptr %129, i32 0, i32 2
  %131 = load i32, ptr %130, align 4, !tbaa !27
  %132 = load i32, ptr %7, align 4, !tbaa !29
  %133 = shl i32 1, %132
  %134 = sub nsw i32 %133, 1
  %135 = icmp sgt i32 %131, %134
  br i1 %135, label %136, label %140

136:                                              ; preds = %112
  %137 = load i32, ptr %7, align 4, !tbaa !29
  %138 = shl i32 1, %137
  %139 = sub nsw i32 %138, 1
  br label %144

140:                                              ; preds = %112
  %141 = load ptr, ptr %5, align 8, !tbaa !22
  %142 = getelementptr inbounds nuw %struct.LimiterContext, ptr %141, i32 0, i32 2
  %143 = load i32, ptr %142, align 4, !tbaa !27
  br label %144

144:                                              ; preds = %140, %136
  %145 = phi i32 [ %139, %136 ], [ %143, %140 ]
  %146 = load ptr, ptr %5, align 8, !tbaa !22
  %147 = getelementptr inbounds nuw %struct.LimiterContext, ptr %146, i32 0, i32 2
  store i32 %145, ptr %147, align 4, !tbaa !27
  %148 = load ptr, ptr %5, align 8, !tbaa !22
  %149 = getelementptr inbounds nuw %struct.LimiterContext, ptr %148, i32 0, i32 1
  %150 = load i32, ptr %149, align 8, !tbaa !24
  %151 = load i32, ptr %7, align 4, !tbaa !29
  %152 = shl i32 1, %151
  %153 = sub nsw i32 %152, 1
  %154 = icmp sgt i32 %150, %153
  br i1 %154, label %155, label %159

155:                                              ; preds = %144
  %156 = load i32, ptr %7, align 4, !tbaa !29
  %157 = shl i32 1, %156
  %158 = sub nsw i32 %157, 1
  br label %163

159:                                              ; preds = %144
  %160 = load ptr, ptr %5, align 8, !tbaa !22
  %161 = getelementptr inbounds nuw %struct.LimiterContext, ptr %160, i32 0, i32 1
  %162 = load i32, ptr %161, align 8, !tbaa !24
  br label %163

163:                                              ; preds = %159, %155
  %164 = phi i32 [ %158, %155 ], [ %162, %159 ]
  %165 = load ptr, ptr %5, align 8, !tbaa !22
  %166 = getelementptr inbounds nuw %struct.LimiterContext, ptr %165, i32 0, i32 1
  store i32 %164, ptr %166, align 8, !tbaa !24
  %167 = load i32, ptr %7, align 4, !tbaa !29
  %168 = icmp eq i32 %167, 8
  br i1 %168, label %169, label %173

169:                                              ; preds = %163
  %170 = load ptr, ptr %5, align 8, !tbaa !22
  %171 = getelementptr inbounds nuw %struct.LimiterContext, ptr %170, i32 0, i32 8
  %172 = getelementptr inbounds nuw %struct.LimiterDSPContext, ptr %171, i32 0, i32 0
  store ptr @limiter8, ptr %172, align 8, !tbaa !59
  br label %177

173:                                              ; preds = %163
  %174 = load ptr, ptr %5, align 8, !tbaa !22
  %175 = getelementptr inbounds nuw %struct.LimiterContext, ptr %174, i32 0, i32 8
  %176 = getelementptr inbounds nuw %struct.LimiterDSPContext, ptr %175, i32 0, i32 0
  store ptr @limiter16, ptr %176, align 8, !tbaa !59
  br label %177

177:                                              ; preds = %173, %169
  store i32 0, ptr %2, align 4
  store i32 1, ptr %11, align 4
  br label %178

178:                                              ; preds = %177, %39
  call void @llvm.lifetime.end.p0(i64 4, ptr %10) #7
  call void @llvm.lifetime.end.p0(i64 4, ptr %9) #7
  call void @llvm.lifetime.end.p0(i64 4, ptr %8) #7
  call void @llvm.lifetime.end.p0(i64 4, ptr %7) #7
  call void @llvm.lifetime.end.p0(i64 8, ptr %6) #7
  call void @llvm.lifetime.end.p0(i64 8, ptr %5) #7
  call void @llvm.lifetime.end.p0(i64 8, ptr %4) #7
  %179 = load i32, ptr %2, align 4
  ret i32 %179
}