; Function Attrs: nounwind uwtable
define internal range(i32 -2147483648, 1) i32 @config_input(ptr noundef readonly captures(none) %0) #1 {
  %2 = getelementptr inbounds nuw i8, ptr %0, i64 16
  %3 = load ptr, ptr %2, align 8, !tbaa !29
  %4 = getelementptr inbounds nuw i8, ptr %3, i64 72
  %5 = load ptr, ptr %4, align 8, !tbaa !4
  %6 = getelementptr inbounds nuw i8, ptr %0, i64 36
  %7 = load i32, ptr %6, align 4, !tbaa !45
  %8 = tail call ptr @av_pix_fmt_desc_get(i32 noundef %7) #7
  %9 = load i32, ptr %6, align 4, !tbaa !45
  %10 = tail call i32 @av_pix_fmt_count_planes(i32 noundef %9) #7
  %11 = getelementptr inbounds nuw i8, ptr %5, i64 20
  store i32 %10, ptr %11, align 4, !tbaa !46
  %12 = getelementptr inbounds nuw i8, ptr %5, i64 24
  %13 = load i32, ptr %6, align 4, !tbaa !45
  %14 = getelementptr inbounds nuw i8, ptr %0, i64 40
  %15 = load i32, ptr %14, align 8, !tbaa !39
  %16 = tail call i32 @av_image_fill_linesizes(ptr noundef nonnull %12, i32 noundef %13, i32 noundef %15) #7
  %17 = icmp slt i32 %16, 0
  br i1 %17, label %54, label %.sink.split

.sink.split:                                      ; preds = %1
  %18 = getelementptr inbounds nuw i8, ptr %8, i64 40
  %19 = load i32, ptr %18, align 8, !tbaa !47
  %20 = getelementptr inbounds nuw i8, ptr %8, i64 9
  %21 = load i8, ptr %20, align 1, !tbaa !49
  %22 = zext nneg i8 %21 to i32
  %23 = getelementptr inbounds nuw i8, ptr %0, i64 44
  %24 = load i32, ptr %23, align 4, !tbaa !40
  %25 = sub nsw i32 0, %24
  %26 = getelementptr inbounds nuw i8, ptr %8, i64 10
  %27 = load i8, ptr %26, align 2, !tbaa !52
  %28 = zext nneg i8 %27 to i32
  %29 = ashr i32 %25, %28
  %30 = sub nsw i32 0, %29
  %31 = getelementptr inbounds nuw i8, ptr %5, i64 56
  %32 = getelementptr inbounds nuw i8, ptr %5, i64 64
  store i32 %30, ptr %32, align 8, !tbaa !44
  %33 = getelementptr inbounds nuw i8, ptr %5, i64 60
  store i32 %30, ptr %33, align 4, !tbaa !44
  %34 = getelementptr inbounds nuw i8, ptr %0, i64 44
  %35 = load i32, ptr %34, align 4, !tbaa !40
  %36 = getelementptr inbounds nuw i8, ptr %5, i64 68
  store i32 %35, ptr %36, align 4, !tbaa !44
  store i32 %35, ptr %31, align 8, !tbaa !44
  %37 = load i32, ptr %14, align 8, !tbaa !39
  %38 = sub nsw i32 0, %37
  %39 = ashr i32 %38, %22
  %40 = sub nsw i32 0, %39
  %41 = getelementptr inbounds nuw i8, ptr %5, i64 40
  %42 = getelementptr inbounds nuw i8, ptr %5, i64 48
  store i32 %40, ptr %42, align 8, !tbaa !44
  %43 = getelementptr inbounds nuw i8, ptr %5, i64 44
  store i32 %40, ptr %43, align 4, !tbaa !44
  %44 = load i32, ptr %14, align 8, !tbaa !39
  %45 = getelementptr inbounds nuw i8, ptr %5, i64 52
  store i32 %44, ptr %45, align 4, !tbaa !44
  store i32 %44, ptr %41, align 8, !tbaa !44
  %46 = getelementptr inbounds nuw i8, ptr %5, i64 12
  %47 = load i32, ptr %46, align 4, !tbaa !23
  %notmask = shl nsw i32 -1, %19
  %48 = xor i32 %notmask, -1
  %. = tail call i32 @llvm.smin.i32(i32 %47, i32 %48)
  store i32 %., ptr %46, align 4, !tbaa !23
  %49 = getelementptr inbounds nuw i8, ptr %5, i64 8
  %50 = load i32, ptr %49, align 8, !tbaa !20
  %51 = tail call i32 @llvm.smin.i32(i32 %50, i32 %48)
  store i32 %51, ptr %49, align 8, !tbaa !20
  %52 = icmp eq i32 %19, 8
  %53 = getelementptr inbounds nuw i8, ptr %5, i64 72
  %limiter8.limiter16 = select i1 %52, ptr @limiter8, ptr @limiter16
  store ptr %limiter8.limiter16, ptr %53, align 8, !tbaa !53
  br label %54

54:                                               ; preds = %.sink.split, %1
  %.0 = phi i32 [ %16, %1 ], [ 0, %.sink.split ]
  ret i32 %.0
}